; Function Attrs: nounwind uwtable
define void @lv_span_set_text(ptr noundef %0, ptr noundef %1) local_unnamed_addr #0 {
  %3 = icmp eq ptr %0, null
  %4 = icmp eq ptr %1, null
  %or.cond = or i1 %3, %4
  br i1 %or.cond, label %30, label %5

5:                                                ; preds = %2
  %6 = tail call i64 @lv_strlen(ptr noundef nonnull %1) #8
  %7 = add i64 %6, 1
  %8 = load ptr, ptr %0, align 8, !tbaa !16
  %9 = icmp eq ptr %8, null
  br i1 %9, label %14, label %10

10:                                               ; preds = %5
  %11 = getelementptr inbounds nuw i8, ptr %0, i64 32
  %12 = load i8, ptr %11, align 8
  %13 = and i8 %12, 1
  %.not = icmp eq i8 %13, 0
  br i1 %.not, label %16, label %14

14:                                               ; preds = %10, %5
  %15 = tail call ptr @lv_malloc(i64 noundef %7) #8
  store ptr %15, ptr %0, align 8, !tbaa !16
  %.not21 = icmp eq ptr %15, null
  br i1 %.not21, label %.preheader, label %18

.preheader:                                       ; preds = %14, %.preheader
  br label %.preheader

16:                                               ; preds = %10
  %17 = tail call ptr @lv_realloc(ptr noundef nonnull %8, i64 noundef %7) #8
  store ptr %17, ptr %0, align 8, !tbaa !16
  %.not20 = icmp eq ptr %17, null
  br i1 %.not20, label %.preheader22, label %18

.preheader22:                                     ; preds = %16, %.preheader22
  br label %.preheader22

18:                                               ; preds = %14, %16
  %19 = phi ptr [ %17, %16 ], [ %15, %14 ]
  %20 = getelementptr inbounds nuw i8, ptr %0, i64 32
  %21 = load i8, ptr %20, align 8
  %22 = and i8 %21, -2
  store i8 %22, ptr %20, align 8
  %23 = tail call ptr @lv_memcpy(ptr noundef nonnull %19, ptr noundef nonnull %1, i64 noundef %7) #8
  %24 = getelementptr inbounds nuw i8, ptr %0, i64 8
  %25 = load ptr, ptr %24, align 8, !tbaa !72
  %26 = getelementptr inbounds nuw i8, ptr %25, i64 104
  %27 = load i8, ptr %26, align 8
  %28 = or i8 %27, 8
  store i8 %28, ptr %26, align 8
  tail call void @lv_obj_invalidate(ptr noundef %25) #8
  %29 = tail call zeroext i1 @lv_obj_refresh_self_size(ptr noundef %25) #8
  br label %30

30:                                               ; preds = %18, %2
  ret void
}